Certificate:
    Data:
        Version: 3 (0x2)
        Serial Number: 1063449867 (0x3f62f50b)
    Signature Algorithm: sha256WithRSAEncryption
        Issuer: C=NL, ST=Zuid-Holland, L=Leiden, O=Leiden University, OU=LIACS, CN=Lieuwe Rooijakkers
        Validity
            Not Before: Mar  6 16:02:19 2020 GMT
            Not After : Mar  6 16:02:19 2021 GMT
        Subject: C=NL, ST=Zuid-Holland, L=Leiden, O=Leiden University, OU=LIACS, CN=Lieuwe Rooijakkers
        Subject Public Key Info:
            Public Key Algorithm: rsaEncryption
                Public-Key: (2048 bit)
                Modulus:
                    00:8c:43:7f:4e:3b:ef:a0:e1:c9:a7:d3:25:00:7f:
                    e0:1b:e6:f4:37:80:77:b6:7e:35:97:a6:6f:58:1f:
                    6f:2d:10:e3:89:cf:86:9c:bc:a6:5a:44:cf:5b:04:
                    88:a0:75:3e:fb:75:c7:5a:bf:03:e9:eb:32:28:f4:
                    e9:7d:0d:d0:60:4f:ff:e9:55:e9:89:05:2f:28:c6:
                    ee:7e:b9:6a:5f:e8:e8:a4:30:05:cd:ee:2c:e7:78:
                    89:32:74:ba:80:2a:d5:33:5c:1b:49:c6:05:aa:2d:
                    e6:0d:47:cb:fe:db:12:c5:5c:4a:b5:cb:5a:40:90:
                    82:fe:5b:d9:37:13:bf:b4:e0:2c:31:4f:7d:5f:81:
                    ac:b8:90:16:93:7d:84:71:4a:e4:aa:fd:be:cb:c0:
                    dd:dd:76:08:43:8c:02:25:c7:c9:85:c9:3f:7f:0b:
                    33:ec:18:6c:3e:02:37:10:a9:0a:94:af:0a:6a:48:
                    4c:e9:71:71:b9:45:7d:bd:e4:8e:2d:bd:bf:f0:b1:
                    67:6d:d7:29:51:72:e8:a0:e9:23:17:73:6d:98:d4:
                    92:bd:97:3d:c9:34:d9:71:87:81:50:d7:56:4a:77:
                    9d:9a:e5:bf:ae:8b:88:93:b6:73:b7:1c:cc:91:23:
                    61:25:cd:72:11:40:77:53:20:e5:c5:3b:ca:fd:38:
                    1f:4f
                Exponent: 65537 (0x10001)
        X509v3 extensions:
            X509v3 Subject Key Identifier: 
                50:09:D9:F4:1D:81:F1:83:EF:0F:8B:AE:7B:BE:49:C7:FB:FF:9B:A8
    Signature Algorithm: sha256WithRSAEncryption
         2a:2e:92:ef:9f:b4:08:f7:5e:ba:27:e2:12:bc:6c:14:ed:52:
         49:70:f2:fd:bf:04:1e:1d:f9:61:fd:d8:52:c6:e9:00:8b:ae:
         a5:bf:71:d0:1d:1f:77:93:d6:1e:23:c0:75:44:1f:62:4b:e2:
         de:34:31:a1:05:3a:f6:59:ff:a2:e0:ce:67:71:e1:0f:6b:ad:
         c2:c6:8a:57:f6:90:65:91:df:fe:89:a8:76:5c:44:6a:00:3b:
         0f:56:be:2e:d1:b6:0c:ec:64:10:b3:67:04:fd:b9:6f:03:74:
         e2:52:aa:c2:64:7e:b1:c8:92:ae:c3:a2:3c:41:d7:b2:7e:b1:
         f4:60:f1:5e:41:c2:8f:79:97:22:64:40:c7:dc:2a:71:1c:5f:
         40:98:4e:09:9d:f9:a1:a3:e7:ee:87:a2:9a:13:48:20:73:3c:
         1e:07:86:e4:b9:ad:70:22:b5:c2:74:b6:36:d9:48:ac:08:bc:
         d0:80:67:26:18:7c:6d:3a:52:b7:b0:9e:c8:39:ef:54:8d:f1:
         36:6a:77:0b:f4:f0:4c:3c:a9:1b:cd:e6:ab:b1:22:f2:38:aa:
         94:a3:1f:3f:94:d0:81:73:eb:99:f5:cd:92:61:46:18:ca:ba:
         e8:2e:5e:35:0b:c2:99:43:ce:dc:0d:74:19:70:1a:37:d7:52:
         3b:fe:66:87
-----BEGIN CERTIFICATE-----
MIIDmzCCAoOgAwIBAgIEP2L1CzANBgkqhkiG9w0BAQsFADB+MQswCQYDVQQGEwJO
TDEVMBMGA1UECBMMWnVpZC1Ib2xsYW5kMQ8wDQYDVQQHEwZMZWlkZW4xGjAYBgNV
BAoTEUxlaWRlbiBVbml2ZXJzaXR5MQ4wDAYDVQQLEwVMSUFDUzEbMBkGA1UEAxMS
TGlldXdlIFJvb2lqYWtrZXJzMB4XDTIwMDMwNjE2MDIxOVoXDTIxMDMwNjE2MDIx
OVowfjELMAkGA1UEBhMCTkwxFTATBgNVBAgTDFp1aWQtSG9sbGFuZDEPMA0GA1UE
BxMGTGVpZGVuMRowGAYDVQQKExFMZWlkZW4gVW5pdmVyc2l0eTEOMAwGA1UECxMF
TElBQ1MxGzAZBgNVBAMTEkxpZXV3ZSBSb29pamFra2VyczCCASIwDQYJKoZIhvcN
AQEBBQADggEPADCCAQoCggEBAIxDf04776DhyafTJQB/4Bvm9DeAd7Z+NZemb1gf
by0Q44nPhpy8plpEz1sEiKB1Pvt1x1q/A+nrMij06X0N0GBP/+lV6YkFLyjG7n65
al/o6KQwBc3uLOd4iTJ0uoAq1TNcG0nGBaot5g1Hy/7bEsVcSrXLWkCQgv5b2TcT
v7TgLDFPfV+BrLiQFpN9hHFK5Kr9vsvA3d12CEOMAiXHyYXJP38LM+wYbD4CNxCp
CpSvCmpITOlxcblFfb3kji29v/CxZ23XKVFy6KDpIxdzbZjUkr2XPck02XGHgVDX
Vkp3nZrlv66LiJO2c7cczJEjYSXNchFAd1Mg5cU7yv04H08CAwEAAaMhMB8wHQYD
VR0OBBYEFFAJ2fQdgfGD7w+Lrnu+Scf7/5uoMA0GCSqGSIb3DQEBCwUAA4IBAQAq
LpLvn7QI9166J+ISvGwU7VJJcPL9vwQeHflh/dhSxukAi66lv3HQHR93k9YeI8B1
RB9iS+LeNDGhBTr2Wf+i4M5nceEPa63CxopX9pBlkd/+iah2XERqADsPVr4u0bYM
7GQQs2cE/blvA3TiUqrCZH6xyJKuw6I8QdeyfrH0YPFeQcKPeZciZEDH3CpxHF9A
mE4Jnfmho+fuh6KaE0ggczweB4bkua1wIrXCdLY22UisCLzQgGcmGHxtOlK3sJ7I
Oe9UjfE2ancL9PBMPKkbzearsSLyOKqUox8/lNCBc+uZ9c2SYUYYyrroLl41C8KZ
Q87cDXQZcBo311I7/maH
-----END CERTIFICATE-----
